; ModuleID = '57/3368.c'
source_filename = "57/3368.c"
target datalayout = "e-m:e-p270:32:32-p271:32:32-p272:64:64-i64:64-f80:128-n8:16:32:64-S128"
target triple = "x86_64-pc-linux-gnu"

@.str = private unnamed_addr constant [3 x i8] c"%d\00", align 1
@.str.1 = private unnamed_addr constant [3 x i8] c"%s\00", align 1
@.str.2 = private unnamed_addr constant [3 x i8] c"%c\00", align 1
@.str.3 = private unnamed_addr constant [2 x i8] c"\0A\00", align 1

; Function Attrs: noinline nounwind uwtable
define dso_local i32 @main() #0 {
  %1 = alloca i32, align 4
  %2 = alloca i32, align 4
  %3 = alloca i32, align 4
  %4 = alloca i32, align 4
  %5 = alloca i32, align 4
  %6 = alloca [100 x [50 x i8]], align 16
  store i32 0, i32* %1, align 4
  %7 = call i32 (i8*, ...) @__isoc99_scanf(i8* getelementptr inbounds ([3 x i8], [3 x i8]* @.str, i64 0, i64 0), i32* %4)
  store i32 0, i32* %2, align 4
  br label %8

8:                                                ; preds = %17, %0
  %9 = load i32, i32* %2, align 4
  %10 = load i32, i32* %4, align 4
  %11 = icmp slt i32 %9, %10
  br i1 %11, label %12, label %20

12:                                               ; preds = %8
  %13 = load i32, i32* %2, align 4
  %14 = sext i32 %13 to i64
  %15 = getelementptr inbounds [100 x [50 x i8]], [100 x [50 x i8]]* %6, i64 0, i64 %14
  %16 = call i32 (i8*, ...) @__isoc99_scanf(i8* getelementptr inbounds ([3 x i8], [3 x i8]* @.str.1, i64 0, i64 0), [50 x i8]* %15)
  br label %17

17:                                               ; preds = %12
  %18 = load i32, i32* %2, align 4
  %19 = add nsw i32 %18, 1
  store i32 %19, i32* %2, align 4
  br label %8

20:                                               ; preds = %8
  store i32 0, i32* %2, align 4
  br label %21

21:                                               ; preds = %84, %20
  %22 = load i32, i32* %2, align 4
  %23 = load i32, i32* %4, align 4
  %24 = icmp slt i32 %22, %23
  br i1 %24, label %25, label %87

25:                                               ; preds = %21
  %26 = load i32, i32* %2, align 4
  %27 = sext i32 %26 to i64
  %28 = getelementptr inbounds [100 x [50 x i8]], [100 x [50 x i8]]* %6, i64 0, i64 %27
  %29 = getelementptr inbounds [50 x i8], [50 x i8]* %28, i64 0, i64 0
  %30 = call i64 @strlen(i8* %29) #3
  %31 = trunc i64 %30 to i32
  store i32 %31, i32* %5, align 4
  %32 = load i32, i32* %2, align 4
  %33 = sext i32 %32 to i64
  %34 = getelementptr inbounds [100 x [50 x i8]], [100 x [50 x i8]]* %6, i64 0, i64 %33
  %35 = load i32, i32* %5, align 4
  %36 = sub nsw i32 %35, 1
  %37 = sext i32 %36 to i64
  %38 = getelementptr inbounds [50 x i8], [50 x i8]* %34, i64 0, i64 %37
  %39 = load i8, i8* %38, align 1
  %40 = sext i8 %39 to i32
  %41 = icmp eq i32 %40, 103
  br i1 %41, label %42, label %62

42:                                               ; preds = %25
  store i32 0, i32* %3, align 4
  br label %43

43:                                               ; preds = %58, %42
  %44 = load i32, i32* %3, align 4
  %45 = load i32, i32* %5, align 4
  %46 = sub nsw i32 %45, 3
  %47 = icmp slt i32 %44, %46
  br i1 %47, label %48, label %61

48:                                               ; preds = %43
  %49 = load i32, i32* %2, align 4
  %50 = sext i32 %49 to i64
  %51 = getelementptr inbounds [100 x [50 x i8]], [100 x [50 x i8]]* %6, i64 0, i64 %50
  %52 = load i32, i32* %3, align 4
  %53 = sext i32 %52 to i64
  %54 = getelementptr inbounds [50 x i8], [50 x i8]* %51, i64 0, i64 %53
  %55 = load i8, i8* %54, align 1
  %56 = sext i8 %55 to i32
  %57 = call i32 (i8*, ...) @printf(i8* getelementptr inbounds ([3 x i8], [3 x i8]* @.str.2, i64 0, i64 0), i32 %56)
  br label %58

58:                                               ; preds = %48
  %59 = load i32, i32* %3, align 4
  %60 = add nsw i32 %59, 1
  store i32 %60, i32* %3, align 4
  br label %43

61:                                               ; preds = %43
  br label %82

62:                                               ; preds = %25
  store i32 0, i32* %3, align 4
  br label %63

63:                                               ; preds = %78, %62
  %64 = load i32, i32* %3, align 4
  %65 = load i32, i32* %5, align 4
  %66 = sub nsw i32 %65, 2
  %67 = icmp slt i32 %64, %66
  br i1 %67, label %68, label %81

68:                                               ; preds = %63
  %69 = load i32, i32* %2, align 4
  %70 = sext i32 %69 to i64
  %71 = getelementptr inbounds [100 x [50 x i8]], [100 x [50 x i8]]* %6, i64 0, i64 %70
  %72 = load i32, i32* %3, align 4
  %73 = sext i32 %72 to i64
  %74 = getelementptr inbounds [50 x i8], [50 x i8]* %71, i64 0, i64 %73
  %75 = load i8, i8* %74, align 1
  %76 = sext i8 %75 to i32
  %77 = call i32 (i8*, ...) @printf(i8* getelementptr inbounds ([3 x i8], [3 x i8]* @.str.2, i64 0, i64 0), i32 %76)
  br label %78

78:                                               ; preds = %68
  %79 = load i32, i32* %3, align 4
  %80 = add nsw i32 %79, 1
  store i32 %80, i32* %3, align 4
  br label %63

81:                                               ; preds = %63
  br label %82

82:                                               ; preds = %81, %61
  %83 = call i32 (i8*, ...) @printf(i8* getelementptr inbounds ([2 x i8], [2 x i8]* @.str.3, i64 0, i64 0))
  br label %84

84:                                               ; preds = %82
  %85 = load i32, i32* %2, align 4
  %86 = add nsw i32 %85, 1
  store i32 %86, i32* %2, align 4
  br label %21

87:                                               ; preds = %21
  ret i32 0
}

declare dso_local i32 @__isoc99_scanf(i8*, ...) #1

; Function Attrs: nounwind readonly
declare dso_local i64 @strlen(i8*) #2

declare dso_local i32 @printf(i8*, ...) #1


!llvm.module.flags = !{!0}
!llvm.ident = !{!1}

!0 = !{i32 1, !"wchar_size", i32 4}
!1 = !{!"clang version 10.0.0-4ubuntu1 "}
