; ModuleID = 'source-C-CXX/56/3368.c'
source_filename = "source-C-CXX/56/3368.c"
target datalayout = "e-m:e-p270:32:32-p271:32:32-p272:64:64-i64:64-f80:128-n8:16:32:64-S128"
target triple = "x86_64-pc-linux-gnu"

@.str = private unnamed_addr constant [3 x i8] c"%d\00", align 1
@.str.1 = private unnamed_addr constant [3 x i8] c"%s\00", align 1

; Function Attrs: nofree nounwind sspstrong uwtable
define dso_local i32 @main() local_unnamed_addr #0 {
  %1 = alloca i32, align 4
  %2 = alloca [100 x [50 x i8]], align 16
  %3 = bitcast i32* %1 to i8*
  call void @llvm.lifetime.start.p0i8(i64 4, i8* nonnull %3) #6
  %4 = getelementptr inbounds [100 x [50 x i8]], [100 x [50 x i8]]* %2, i64 0, i64 0, i64 0
  call void @llvm.lifetime.start.p0i8(i64 5000, i8* nonnull %4) #6
  %5 = call i32 (i8*, ...) @__isoc99_scanf(i8* getelementptr inbounds ([3 x i8], [3 x i8]* @.str, i64 0, i64 0), i32* nonnull %1)
  %6 = load i32, i32* %1, align 4, !tbaa !5
  %7 = icmp sgt i32 %6, 0
  br i1 %7, label %10, label %63

8:                                                ; preds = %10
  %9 = icmp sgt i32 %15, 0
  br i1 %9, label %18, label %63

10:                                               ; preds = %0, %10
  %11 = phi i64 [ %14, %10 ], [ 0, %0 ]
  %12 = getelementptr inbounds [100 x [50 x i8]], [100 x [50 x i8]]* %2, i64 0, i64 %11
  %13 = call i32 (i8*, ...) @__isoc99_scanf(i8* getelementptr inbounds ([3 x i8], [3 x i8]* @.str.1, i64 0, i64 0), [50 x i8]* nonnull %12)
  %14 = add nuw nsw i64 %11, 1
  %15 = load i32, i32* %1, align 4, !tbaa !5
  %16 = sext i32 %15 to i64
  %17 = icmp slt i64 %14, %16
  br i1 %17, label %10, label %8, !llvm.loop !9

18:                                               ; preds = %8, %57
  %19 = phi i64 [ %59, %57 ], [ 0, %8 ]
  %20 = getelementptr inbounds [100 x [50 x i8]], [100 x [50 x i8]]* %2, i64 0, i64 %19, i64 0
  %21 = call i64 @strlen(i8* noundef nonnull %20) #7
  %22 = trunc i64 %21 to i32
  %23 = shl i64 %21, 32
  %24 = add i64 %23, -4294967296
  %25 = ashr exact i64 %24, 32
  %26 = getelementptr inbounds [100 x [50 x i8]], [100 x [50 x i8]]* %2, i64 0, i64 %19, i64 %25
  %27 = load i8, i8* %26, align 1, !tbaa !11
  %28 = icmp eq i8 %27, 103
  br i1 %28, label %36, label %29

29:                                               ; preds = %18
  %30 = icmp sgt i32 %22, 2
  br i1 %30, label %31, label %57

31:                                               ; preds = %29
  %32 = shl i64 %21, 32
  %33 = add i64 %32, -8589934592
  %34 = ashr exact i64 %33, 32
  %35 = call i64 @llvm.smax.i64(i64 %34, i64 1)
  br label %49

36:                                               ; preds = %18
  %37 = icmp sgt i32 %22, 3
  br i1 %37, label %38, label %57

38:                                               ; preds = %36
  %39 = add i64 %21, 4294967293
  %40 = and i64 %39, 4294967295
  br label %41

41:                                               ; preds = %38, %41
  %42 = phi i64 [ 0, %38 ], [ %47, %41 ]
  %43 = getelementptr inbounds [100 x [50 x i8]], [100 x [50 x i8]]* %2, i64 0, i64 %19, i64 %42
  %44 = load i8, i8* %43, align 1, !tbaa !11
  %45 = sext i8 %44 to i32
  %46 = call i32 @putchar(i32 %45)
  %47 = add nuw nsw i64 %42, 1
  %48 = icmp eq i64 %47, %40
  br i1 %48, label %57, label %41, !llvm.loop !12

49:                                               ; preds = %31, %49
  %50 = phi i64 [ 0, %31 ], [ %55, %49 ]
  %51 = getelementptr inbounds [100 x [50 x i8]], [100 x [50 x i8]]* %2, i64 0, i64 %19, i64 %50
  %52 = load i8, i8* %51, align 1, !tbaa !11
  %53 = sext i8 %52 to i32
  %54 = call i32 @putchar(i32 %53)
  %55 = add nuw nsw i64 %50, 1
  %56 = icmp eq i64 %55, %35
  br i1 %56, label %57, label %49, !llvm.loop !13

57:                                               ; preds = %49, %41, %29, %36
  %58 = call i32 @putchar(i32 10)
  %59 = add nuw nsw i64 %19, 1
  %60 = load i32, i32* %1, align 4, !tbaa !5
  %61 = sext i32 %60 to i64
  %62 = icmp slt i64 %59, %61
  br i1 %62, label %18, label %63, !llvm.loop !14

63:                                               ; preds = %57, %0, %8
  call void @llvm.lifetime.end.p0i8(i64 5000, i8* nonnull %4) #6
  call void @llvm.lifetime.end.p0i8(i64 4, i8* nonnull %3) #6
  ret i32 0
}

; Function Attrs: argmemonly mustprogress nofree nosync nounwind willreturn
declare void @llvm.lifetime.start.p0i8(i64 immarg, i8* nocapture) #1

; Function Attrs: nofree nounwind
declare noundef i32 @__isoc99_scanf(i8* nocapture noundef readonly, ...) local_unnamed_addr #2

; Function Attrs: argmemonly mustprogress nofree nounwind readonly willreturn
declare i64 @strlen(i8* nocapture) local_unnamed_addr #3

; Function Attrs: argmemonly mustprogress nofree nosync nounwind willreturn
declare void @llvm.lifetime.end.p0i8(i64 immarg, i8* nocapture) #1

; Function Attrs: nofree nounwind
declare noundef i32 @putchar(i32 noundef) local_unnamed_addr #4

; Function Attrs: nofree nosync nounwind readnone speculatable willreturn
declare i64 @llvm.smax.i64(i64, i64) #5


!llvm.module.flags = !{!0, !1, !2, !3}
!llvm.ident = !{!4}

!0 = !{i32 1, !"wchar_size", i32 4}
!1 = !{i32 7, !"PIC Level", i32 2}
!2 = !{i32 7, !"PIE Level", i32 2}
!3 = !{i32 7, !"uwtable", i32 1}
!4 = !{!"clang version 13.0.0"}
!5 = !{!6, !6, i64 0}
!6 = !{!"int", !7, i64 0}
!7 = !{!"omnipotent char", !8, i64 0}
!8 = !{!"Simple C/C++ TBAA"}
!9 = distinct !{!9, !10}
!10 = !{!"llvm.loop.mustprogress"}
!11 = !{!7, !7, i64 0}
!12 = distinct !{!12, !10}
!13 = distinct !{!13, !10}
!14 = distinct !{!14, !10}
